; Function Attrs: mustprogress nounwind uwtable
define dso_local noundef zeroext i1 @_ZNK4llvm4Loop15isLoopInvariantEPKNS_5ValueE(ptr noundef nonnull align 8 dereferenceable(152) %0, ptr nocapture noundef readonly %1) local_unnamed_addr #0 align 2 {
  %3 = load i8, ptr %1, align 8
  %4 = icmp ult i8 %3, 29
  br i1 %4, label %39, label %5

5:                                                ; preds = %2
  %6 = getelementptr inbounds i8, ptr %1, i64 40
  %7 = load ptr, ptr %6, align 8
  %8 = getelementptr inbounds nuw i8, ptr %0, i64 56
  %9 = getelementptr inbounds i8, ptr %0, i64 64
  %10 = load ptr, ptr %9, align 8
  %11 = load ptr, ptr %8, align 8
  %12 = icmp eq ptr %10, %11
  br i1 %12, label %13, label %23

13:                                               ; preds = %5
  %14 = getelementptr inbounds i8, ptr %0, i64 76
  %15 = load i32, ptr %14, align 4
  %16 = zext i32 %15 to i64
  %17 = getelementptr inbounds ptr, ptr %11, i64 %16
  %.not1317.i.i.i.i = icmp eq i32 %15, 0
  br i1 %.not1317.i.i.i.i, label %._crit_edge.i.i.i.i, label %.lr.ph.i.i.i.i

.lr.ph.i.i.i.i:                                   ; preds = %13, %20
  %.01118.i.i.i.i = phi ptr [ %21, %20 ], [ %11, %13 ]
  %18 = load ptr, ptr %.01118.i.i.i.i, align 8
  %19 = icmp eq ptr %18, %7
  br i1 %19, label %_ZNK4llvm8LoopBaseINS_10BasicBlockENS_4LoopEE8containsINS_11InstructionEEEbPKT_.exit, label %20

20:                                               ; preds = %.lr.ph.i.i.i.i
  %21 = getelementptr inbounds i8, ptr %.01118.i.i.i.i, i64 8
  %.not13.i.i.i.i = icmp eq ptr %21, %17
  br i1 %.not13.i.i.i.i, label %._crit_edge.i.i.i.i, label %.lr.ph.i.i.i.i, !llvm.loop !8

._crit_edge.i.i.i.i:                              ; preds = %20, %13
  %22 = getelementptr inbounds ptr, ptr %10, i64 %16
  br label %_ZNK4llvm8LoopBaseINS_10BasicBlockENS_4LoopEE8containsINS_11InstructionEEEbPKT_.exit

23:                                               ; preds = %5
  %24 = tail call noundef ptr @_ZNK4llvm19SmallPtrSetImplBase6doFindEPKv(ptr noundef nonnull align 8 dereferenceable(28) %8, ptr noundef %7) #19
  %.not.i.i.i.i = icmp eq ptr %24, null
  %.pre.i.i.i = load ptr, ptr %9, align 8
  %.pre4.i.i.i = load ptr, ptr %8, align 8
  br i1 %.not.i.i.i.i, label %25, label %._ZNK4llvm19SmallPtrSetImplBase8find_impEPKv.exit_crit_edge.i.i.i

._ZNK4llvm19SmallPtrSetImplBase8find_impEPKv.exit_crit_edge.i.i.i: ; preds = %23
  %.phi.trans.insert.i.i.i = getelementptr inbounds i8, ptr %0, i64 76
  %.pre5.i.i.i = load i32, ptr %.phi.trans.insert.i.i.i, align 4
  br label %_ZNK4llvm8LoopBaseINS_10BasicBlockENS_4LoopEE8containsINS_11InstructionEEEbPKT_.exit

25:                                               ; preds = %23
  %26 = icmp eq ptr %.pre.i.i.i, %.pre4.i.i.i
  %27 = getelementptr inbounds i8, ptr %0, i64 76
  %28 = load i32, ptr %27, align 4
  %29 = getelementptr inbounds i8, ptr %0, i64 72
  %30 = load i32, ptr %29, align 8
  %.v.v.i14.i.i.i.i = select i1 %26, i32 %28, i32 %30
  %.v.i15.i.i.i.i = zext i32 %.v.v.i14.i.i.i.i to i64
  %31 = getelementptr inbounds ptr, ptr %.pre.i.i.i, i64 %.v.i15.i.i.i.i
  br label %_ZNK4llvm8LoopBaseINS_10BasicBlockENS_4LoopEE8containsINS_11InstructionEEEbPKT_.exit

_ZNK4llvm8LoopBaseINS_10BasicBlockENS_4LoopEE8containsINS_11InstructionEEEbPKT_.exit: ; preds = %.lr.ph.i.i.i.i, %._crit_edge.i.i.i.i, %._ZNK4llvm19SmallPtrSetImplBase8find_impEPKv.exit_crit_edge.i.i.i, %25
  %32 = phi i32 [ %15, %._crit_edge.i.i.i.i ], [ %28, %25 ], [ %.pre5.i.i.i, %._ZNK4llvm19SmallPtrSetImplBase8find_impEPKv.exit_crit_edge.i.i.i ], [ %15, %.lr.ph.i.i.i.i ]
  %33 = phi ptr [ %10, %._crit_edge.i.i.i.i ], [ %.pre4.i.i.i, %25 ], [ %.pre4.i.i.i, %._ZNK4llvm19SmallPtrSetImplBase8find_impEPKv.exit_crit_edge.i.i.i ], [ %10, %.lr.ph.i.i.i.i ]
  %34 = phi ptr [ %10, %._crit_edge.i.i.i.i ], [ %.pre.i.i.i, %25 ], [ %.pre.i.i.i, %._ZNK4llvm19SmallPtrSetImplBase8find_impEPKv.exit_crit_edge.i.i.i ], [ %10, %.lr.ph.i.i.i.i ]
  %.0.i.i.i.i = phi ptr [ %22, %._crit_edge.i.i.i.i ], [ %31, %25 ], [ %24, %._ZNK4llvm19SmallPtrSetImplBase8find_impEPKv.exit_crit_edge.i.i.i ], [ %.01118.i.i.i.i, %.lr.ph.i.i.i.i ]
  %35 = icmp eq ptr %34, %33
  %36 = getelementptr inbounds i8, ptr %0, i64 72
  %37 = load i32, ptr %36, align 8
  %.v.v.i.i.i.i = select i1 %35, i32 %32, i32 %37
  %.v.i.i.i.i = zext i32 %.v.v.i.i.i.i to i64
  %38 = getelementptr inbounds ptr, ptr %34, i64 %.v.i.i.i.i
  %.not = icmp eq ptr %.0.i.i.i.i, %38
  br label %39

39:                                               ; preds = %2, %_ZNK4llvm8LoopBaseINS_10BasicBlockENS_4LoopEE8containsINS_11InstructionEEEbPKT_.exit
  %.0 = phi i1 [ %.not, %_ZNK4llvm8LoopBaseINS_10BasicBlockENS_4LoopEE8containsINS_11InstructionEEEbPKT_.exit ], [ true, %2 ]
  ret i1 %.0
}